target datalayout = "e-m:e-p270:32:32-p271:32:32-p272:64:64-i64:64-i128:128-f80:128-n8:16:32:64-S128"
target triple = "x86_64-pc-linux-gnu"

@.str.19 = private unnamed_addr constant [2 x i8] c" \00", align 1
@.str.20 = private unnamed_addr constant [2 x i8] c"<\00", align 1
@.str.21 = private unnamed_addr constant [2 x i8] c"-\00", align 1
@.str.22 = private unnamed_addr constant [2 x i8] c">\00", align 1
@.str.23 = private unnamed_addr constant [5 x i8] c"    \00", align 1
@.str.24 = private unnamed_addr constant [28 x i8] c"[%3d :%3d ] -> [%3d :%3d ]\0A\00", align 1

; Function Attrs: nounwind uwtable
define internal i32 @toLitCond(i32 noundef %0, i32 noundef %1) #0 {
  %3 = alloca i32, align 4
  %4 = alloca i32, align 4
  store i32 %0, ptr %3, align 4
  store i32 %1, ptr %4, align 4
  %5 = load i32, ptr %3, align 4
  %6 = load i32, ptr %3, align 4
  %7 = add nsw i32 %5, %6
  %8 = load i32, ptr %4, align 4
  %9 = icmp ne i32 %8, 0
  %10 = zext i1 %9 to i32
  %11 = add nsw i32 %7, %10
  ret i32 %11
}

; Function Attrs: nounwind uwtable
define internal i32 @sat_solver_add_half_sorter(ptr noundef %0, i32 noundef %1, i32 noundef %2, i32 noundef %3, i32 noundef %4) #0 {
  %6 = alloca ptr, align 8
  %7 = alloca i32, align 4
  %8 = alloca i32, align 4
  %9 = alloca i32, align 4
  %10 = alloca i32, align 4
  %11 = alloca [3 x i32], align 4
  %12 = alloca i32, align 4
  store ptr %0, ptr %6, align 8
  store i32 %1, ptr %7, align 4
  store i32 %2, ptr %8, align 4
  store i32 %3, ptr %9, align 4
  store i32 %4, ptr %10, align 4
  %13 = load i32, ptr %7, align 4
  %14 = call i32 @toLitCond(i32 noundef %13, i32 noundef 0)
  %15 = getelementptr inbounds [3 x i32], ptr %11, i64 0, i64 0
  store i32 %14, ptr %15, align 4
  %16 = load i32, ptr %9, align 4
  %17 = call i32 @toLitCond(i32 noundef %16, i32 noundef 1)
  %18 = getelementptr inbounds [3 x i32], ptr %11, i64 0, i64 1
  store i32 %17, ptr %18, align 4
  %19 = load ptr, ptr %6, align 8
  %20 = getelementptr inbounds [3 x i32], ptr %11, i64 0, i64 0
  %21 = getelementptr inbounds [3 x i32], ptr %11, i64 0, i64 0
  %22 = getelementptr inbounds i32, ptr %21, i64 2
  %23 = call i32 @sat_solver_addclause(ptr noundef %19, ptr noundef %20, ptr noundef %22)
  store i32 %23, ptr %12, align 4
  %24 = load i32, ptr %7, align 4
  %25 = call i32 @toLitCond(i32 noundef %24, i32 noundef 0)
  %26 = getelementptr inbounds [3 x i32], ptr %11, i64 0, i64 0
  store i32 %25, ptr %26, align 4
  %27 = load i32, ptr %10, align 4
  %28 = call i32 @toLitCond(i32 noundef %27, i32 noundef 1)
  %29 = getelementptr inbounds [3 x i32], ptr %11, i64 0, i64 1
  store i32 %28, ptr %29, align 4
  %30 = load ptr, ptr %6, align 8
  %31 = getelementptr inbounds [3 x i32], ptr %11, i64 0, i64 0
  %32 = getelementptr inbounds [3 x i32], ptr %11, i64 0, i64 0
  %33 = getelementptr inbounds i32, ptr %32, i64 2
  %34 = call i32 @sat_solver_addclause(ptr noundef %30, ptr noundef %31, ptr noundef %33)
  store i32 %34, ptr %12, align 4
  %35 = load i32, ptr %8, align 4
  %36 = call i32 @toLitCond(i32 noundef %35, i32 noundef 0)
  %37 = getelementptr inbounds [3 x i32], ptr %11, i64 0, i64 0
  store i32 %36, ptr %37, align 4
  %38 = load i32, ptr %9, align 4
  %39 = call i32 @toLitCond(i32 noundef %38, i32 noundef 1)
  %40 = getelementptr inbounds [3 x i32], ptr %11, i64 0, i64 1
  store i32 %39, ptr %40, align 4
  %41 = load i32, ptr %10, align 4
  %42 = call i32 @toLitCond(i32 noundef %41, i32 noundef 1)
  %43 = getelementptr inbounds [3 x i32], ptr %11, i64 0, i64 2
  store i32 %42, ptr %43, align 4
  %44 = load ptr, ptr %6, align 8
  %45 = getelementptr inbounds [3 x i32], ptr %11, i64 0, i64 0
  %46 = getelementptr inbounds [3 x i32], ptr %11, i64 0, i64 0
  %47 = getelementptr inbounds i32, ptr %46, i64 3
  %48 = call i32 @sat_solver_addclause(ptr noundef %44, ptr noundef %45, ptr noundef %47)
  store i32 %48, ptr %12, align 4
  ret i32 3
}

; Function Attrs: nounwind uwtable
define internal i32 @Abc_Var2Lit(i32 noundef %0, i32 noundef %1) #0 {
  %3 = alloca i32, align 4
  %4 = alloca i32, align 4
  store i32 %0, ptr %3, align 4
  store i32 %1, ptr %4, align 4
  %5 = load i32, ptr %3, align 4
  %6 = load i32, ptr %3, align 4
  %7 = add nsw i32 %5, %6
  %8 = load i32, ptr %4, align 4
  %9 = add nsw i32 %7, %8
  ret i32 %9
}

; Function Attrs: nounwind uwtable
define internal void @Sbm_AddSorter(ptr noundef %0, ptr noundef %1, i32 noundef %2, i32 noundef %3, ptr noundef %4) #0 {
  %6 = alloca ptr, align 8
  %7 = alloca ptr, align 8
  %8 = alloca i32, align 4
  %9 = alloca i32, align 4
  %10 = alloca ptr, align 8
  %11 = alloca i32, align 4
  %12 = alloca i32, align 4
  %13 = alloca i32, align 4
  %14 = alloca i32, align 4
  store ptr %0, ptr %6, align 8
  store ptr %1, ptr %7, align 8
  store i32 %2, ptr %8, align 4
  store i32 %3, ptr %9, align 4
  store ptr %4, ptr %10, align 8
  %15 = load ptr, ptr %10, align 8
  %16 = load i32, ptr %15, align 4
  %17 = add nsw i32 %16, 1
  store i32 %17, ptr %15, align 4
  store i32 %16, ptr %11, align 4
  %18 = load ptr, ptr %10, align 8
  %19 = load i32, ptr %18, align 4
  %20 = add nsw i32 %19, 1
  store i32 %20, ptr %18, align 4
  store i32 %19, ptr %12, align 4
  store i32 0, ptr %13, align 4
  %21 = load i32, ptr %13, align 4
  %22 = icmp ne i32 %21, 0
  br i1 %22, label %23, label %73

23:                                               ; preds = %5
  store i32 0, ptr %14, align 4
  br label %24

24:                                               ; preds = %30, %23
  %25 = load i32, ptr %14, align 4
  %26 = load i32, ptr %8, align 4
  %27 = icmp slt i32 %25, %26
  br i1 %27, label %28, label %33

28:                                               ; preds = %24
  %29 = call i32 (ptr, ...) @printf(ptr noundef @.str.19)
  br label %30

30:                                               ; preds = %28
  %31 = load i32, ptr %14, align 4
  %32 = add nsw i32 %31, 1
  store i32 %32, ptr %14, align 4
  br label %24, !llvm.loop !31

33:                                               ; preds = %24
  %34 = call i32 (ptr, ...) @printf(ptr noundef @.str.20)
  %35 = load i32, ptr %8, align 4
  %36 = add nsw i32 %35, 1
  store i32 %36, ptr %14, align 4
  br label %37

37:                                               ; preds = %43, %33
  %38 = load i32, ptr %14, align 4
  %39 = load i32, ptr %9, align 4
  %40 = icmp slt i32 %38, %39
  br i1 %40, label %41, label %46

41:                                               ; preds = %37
  %42 = call i32 (ptr, ...) @printf(ptr noundef @.str.21)
  br label %43

43:                                               ; preds = %41
  %44 = load i32, ptr %14, align 4
  %45 = add nsw i32 %44, 1
  store i32 %45, ptr %14, align 4
  br label %37, !llvm.loop !32

46:                                               ; preds = %37
  %47 = call i32 (ptr, ...) @printf(ptr noundef @.str.22)
  %48 = load i32, ptr %9, align 4
  %49 = add nsw i32 %48, 1
  store i32 %49, ptr %14, align 4
  br label %50

50:                                               ; preds = %55, %46
  %51 = load i32, ptr %14, align 4
  %52 = icmp slt i32 %51, 8
  br i1 %52, label %53, label %58

53:                                               ; preds = %50
  %54 = call i32 (ptr, ...) @printf(ptr noundef @.str.19)
  br label %55

55:                                               ; preds = %53
  %56 = load i32, ptr %14, align 4
  %57 = add nsw i32 %56, 1
  store i32 %57, ptr %14, align 4
  br label %50, !llvm.loop !33

58:                                               ; preds = %50
  %59 = call i32 (ptr, ...) @printf(ptr noundef @.str.23)
  %60 = load ptr, ptr %7, align 8
  %61 = load i32, ptr %8, align 4
  %62 = sext i32 %61 to i64
  %63 = getelementptr inbounds i32, ptr %60, i64 %62
  %64 = load i32, ptr %63, align 4
  %65 = load ptr, ptr %7, align 8
  %66 = load i32, ptr %9, align 4
  %67 = sext i32 %66 to i64
  %68 = getelementptr inbounds i32, ptr %65, i64 %67
  %69 = load i32, ptr %68, align 4
  %70 = load i32, ptr %11, align 4
  %71 = load i32, ptr %12, align 4
  %72 = call i32 (ptr, ...) @printf(ptr noundef @.str.24, i32 noundef %64, i32 noundef %69, i32 noundef %70, i32 noundef %71)
  br label %73

73:                                               ; preds = %58, %5
  %74 = load ptr, ptr %6, align 8
  %75 = load i32, ptr %11, align 4
  %76 = load i32, ptr %12, align 4
  %77 = load ptr, ptr %7, align 8
  %78 = load i32, ptr %8, align 4
  %79 = sext i32 %78 to i64
  %80 = getelementptr inbounds i32, ptr %77, i64 %79
  %81 = load i32, ptr %80, align 4
  %82 = load ptr, ptr %7, align 8
  %83 = load i32, ptr %9, align 4
  %84 = sext i32 %83 to i64
  %85 = getelementptr inbounds i32, ptr %82, i64 %84
  %86 = load i32, ptr %85, align 4
  %87 = call i32 @sat_solver_add_half_sorter(ptr noundef %74, i32 noundef %75, i32 noundef %76, i32 noundef %81, i32 noundef %86)
  %88 = load i32, ptr %11, align 4
  %89 = load ptr, ptr %7, align 8
  %90 = load i32, ptr %8, align 4
  %91 = sext i32 %90 to i64
  %92 = getelementptr inbounds i32, ptr %89, i64 %91
  store i32 %88, ptr %92, align 4
  %93 = load i32, ptr %12, align 4
  %94 = load ptr, ptr %7, align 8
  %95 = load i32, ptr %9, align 4
  %96 = sext i32 %95 to i64
  %97 = getelementptr inbounds i32, ptr %94, i64 %96
  store i32 %93, ptr %97, align 4
  ret void
}

; Function Attrs: nounwind uwtable
define internal void @Sbm_AddCardinConstrMerge(ptr noundef %0, ptr noundef %1, i32 noundef %2, i32 noundef %3, i32 noundef %4, ptr noundef %5) #0 {
  %7 = alloca ptr, align 8
  %8 = alloca ptr, align 8
  %9 = alloca i32, align 4
  %10 = alloca i32, align 4
  %11 = alloca i32, align 4
  %12 = alloca ptr, align 8
  %13 = alloca i32, align 4
  %14 = alloca i32, align 4
  %15 = alloca [2 x i32], align 4
  %16 = alloca i32, align 4
  store ptr %0, ptr %7, align 8
  store ptr %1, ptr %8, align 8
  store i32 %2, ptr %9, align 4
  store i32 %3, ptr %10, align 4
  store i32 %4, ptr %11, align 4
  store ptr %5, ptr %12, align 8
  %17 = load i32, ptr %11, align 4
  %18 = mul nsw i32 %17, 2
  store i32 %18, ptr %14, align 4
  %19 = load i32, ptr %14, align 4
  %20 = load i32, ptr %10, align 4
  %21 = load i32, ptr %9, align 4
  %22 = sub nsw i32 %20, %21
  %23 = icmp slt i32 %19, %22
  br i1 %23, label %24, label %100

24:                                               ; preds = %6
  %25 = load ptr, ptr %7, align 8
  %26 = load ptr, ptr %8, align 8
  %27 = load i32, ptr %9, align 4
  %28 = load i32, ptr %10, align 4
  %29 = load i32, ptr %11, align 4
  %30 = sub nsw i32 %28, %29
  %31 = load i32, ptr %14, align 4
  %32 = load ptr, ptr %12, align 8
  call void @Sbm_AddCardinConstrMerge(ptr noundef %25, ptr noundef %26, i32 noundef %27, i32 noundef %30, i32 noundef %31, ptr noundef %32)
  %33 = load ptr, ptr %7, align 8
  %34 = load ptr, ptr %8, align 8
  %35 = load i32, ptr %9, align 4
  %36 = load i32, ptr %11, align 4
  %37 = add nsw i32 %35, %36
  %38 = load i32, ptr %10, align 4
  %39 = load i32, ptr %14, align 4
  %40 = load ptr, ptr %12, align 8
  call void @Sbm_AddCardinConstrMerge(ptr noundef %33, ptr noundef %34, i32 noundef %37, i32 noundef %38, i32 noundef %39, ptr noundef %40)
  %41 = load i32, ptr %9, align 4
  %42 = load i32, ptr %11, align 4
  %43 = add nsw i32 %41, %42
  store i32 %43, ptr %13, align 4
  br label %44

44:                                               ; preds = %58, %24
  %45 = load i32, ptr %13, align 4
  %46 = load i32, ptr %10, align 4
  %47 = load i32, ptr %11, align 4
  %48 = sub nsw i32 %46, %47
  %49 = icmp slt i32 %45, %48
  br i1 %49, label %50, label %62

50:                                               ; preds = %44
  %51 = load ptr, ptr %7, align 8
  %52 = load ptr, ptr %8, align 8
  %53 = load i32, ptr %13, align 4
  %54 = load i32, ptr %13, align 4
  %55 = load i32, ptr %11, align 4
  %56 = add nsw i32 %54, %55
  %57 = load ptr, ptr %12, align 8
  call void @Sbm_AddSorter(ptr noundef %51, ptr noundef %52, i32 noundef %53, i32 noundef %56, ptr noundef %57)
  br label %58

58:                                               ; preds = %50
  %59 = load i32, ptr %14, align 4
  %60 = load i32, ptr %13, align 4
  %61 = add nsw i32 %60, %59
  store i32 %61, ptr %13, align 4
  br label %44, !llvm.loop !34

62:                                               ; preds = %44
  %63 = load i32, ptr %9, align 4
  %64 = load i32, ptr %11, align 4
  %65 = add nsw i32 %63, %64
  store i32 %65, ptr %13, align 4
  br label %66

66:                                               ; preds = %95, %62
  %67 = load i32, ptr %13, align 4
  %68 = load i32, ptr %10, align 4
  %69 = load i32, ptr %11, align 4
  %70 = sub nsw i32 %68, %69
  %71 = sub nsw i32 %70, 1
  %72 = icmp slt i32 %67, %71
  br i1 %72, label %73, label %99

73:                                               ; preds = %66
  %74 = getelementptr inbounds [2 x i32], ptr %15, i64 0, i64 0
  %75 = load ptr, ptr %8, align 8
  %76 = load i32, ptr %13, align 4
  %77 = sext i32 %76 to i64
  %78 = getelementptr inbounds i32, ptr %75, i64 %77
  %79 = load i32, ptr %78, align 4
  %80 = call i32 @Abc_Var2Lit(i32 noundef %79, i32 noundef 0)
  store i32 %80, ptr %74, align 4
  %81 = getelementptr inbounds i32, ptr %74, i64 1
  %82 = load ptr, ptr %8, align 8
  %83 = load i32, ptr %13, align 4
  %84 = load i32, ptr %11, align 4
  %85 = add nsw i32 %83, %84
  %86 = sext i32 %85 to i64
  %87 = getelementptr inbounds i32, ptr %82, i64 %86
  %88 = load i32, ptr %87, align 4
  %89 = call i32 @Abc_Var2Lit(i32 noundef %88, i32 noundef 1)
  store i32 %89, ptr %81, align 4
  %90 = load ptr, ptr %7, align 8
  %91 = getelementptr inbounds [2 x i32], ptr %15, i64 0, i64 0
  %92 = getelementptr inbounds [2 x i32], ptr %15, i64 0, i64 0
  %93 = getelementptr inbounds i32, ptr %92, i64 2
  %94 = call i32 @sat_solver_addclause(ptr noundef %90, ptr noundef %91, ptr noundef %93)
  store i32 %94, ptr %16, align 4
  br label %95

95:                                               ; preds = %73
  %96 = load i32, ptr %11, align 4
  %97 = load i32, ptr %13, align 4
  %98 = add nsw i32 %97, %96
  store i32 %98, ptr %13, align 4
  br label %66, !llvm.loop !35

99:                                               ; preds = %66
  br label %100

100:                                              ; preds = %99, %6
  ret void
}