; Function Attrs: nounwind uwtable
define internal fastcc void @Sbm_AddCardinConstrMerge(ptr noundef %0, ptr noundef %1, i32 noundef %2, i32 noundef %3, i32 noundef %4, ptr noundef nonnull %5) unnamed_addr #0 {
  %7 = alloca [3 x i32], align 4
  %8 = alloca [2 x i32], align 4
  %9 = shl nsw i32 %4, 1
  %10 = sub nsw i32 %3, %2
  %11 = icmp slt i32 %9, %10
  br i1 %11, label %12, label %.loopexit

12:                                               ; preds = %6
  %13 = sub nsw i32 %3, %4
  tail call fastcc void @Sbm_AddCardinConstrMerge(ptr noundef %0, ptr noundef %1, i32 noundef %2, i32 noundef %13, i32 noundef %9, ptr noundef %5)
  %14 = add nsw i32 %4, %2
  tail call fastcc void @Sbm_AddCardinConstrMerge(ptr noundef %0, ptr noundef %1, i32 noundef %14, i32 noundef %3, i32 noundef %9, ptr noundef %5)
  %15 = icmp slt i32 %14, %13
  br i1 %15, label %.lr.ph, label %.preheader

.lr.ph:                                           ; preds = %12
  %16 = getelementptr inbounds nuw i8, ptr %7, i64 4
  %17 = getelementptr inbounds nuw i8, ptr %7, i64 8
  %18 = getelementptr inbounds nuw i8, ptr %7, i64 12
  %19 = sext i32 %14 to i64
  %20 = sext i32 %9 to i64
  %21 = sext i32 %4 to i64
  %22 = sext i32 %13 to i64
  %invariant.gep = getelementptr i32, ptr %1, i64 %21
  br label %30

.preheader:                                       ; preds = %30, %12
  %23 = add nsw i32 %13, -1
  %24 = icmp slt i32 %14, %23
  br i1 %24, label %.lr.ph47, label %.loopexit

.lr.ph47:                                         ; preds = %.preheader
  %25 = getelementptr inbounds nuw i8, ptr %8, i64 4
  %26 = getelementptr inbounds nuw i8, ptr %8, i64 8
  %27 = sext i32 %14 to i64
  %28 = sext i32 %4 to i64
  %29 = sext i32 %23 to i64
  br label %47

30:                                               ; preds = %.lr.ph, %30
  %indvars.iv = phi i64 [ %19, %.lr.ph ], [ %indvars.iv.next, %30 ]
  %31 = load i32, ptr %5, align 4
  %32 = add nsw i32 %31, 2
  store i32 %32, ptr %5, align 4
  %33 = add nsw i32 %31, 1
  %34 = getelementptr inbounds i32, ptr %1, i64 %indvars.iv
  %35 = load i32, ptr %34, align 4
  %gep = getelementptr i32, ptr %invariant.gep, i64 %indvars.iv
  %36 = load i32, ptr %gep, align 4
  call void @llvm.lifetime.start.p0(i64 12, ptr nonnull %7)
  %37 = shl nsw i32 %31, 1
  store i32 %37, ptr %7, align 4
  %38 = shl nsw i32 %35, 1
  %39 = or disjoint i32 %38, 1
  store i32 %39, ptr %16, align 4
  %40 = call i32 @sat_solver_addclause(ptr noundef %0, ptr noundef nonnull %7, ptr noundef nonnull %17) #16
  store i32 %37, ptr %7, align 4
  %41 = shl nsw i32 %36, 1
  %42 = or disjoint i32 %41, 1
  store i32 %42, ptr %16, align 4
  %43 = call i32 @sat_solver_addclause(ptr noundef %0, ptr noundef nonnull %7, ptr noundef nonnull %17) #16
  %44 = shl nsw i32 %33, 1
  store i32 %44, ptr %7, align 4
  store i32 %39, ptr %16, align 4
  store i32 %42, ptr %17, align 4
  %45 = call i32 @sat_solver_addclause(ptr noundef %0, ptr noundef nonnull %7, ptr noundef nonnull %18) #16
  call void @llvm.lifetime.end.p0(i64 12, ptr nonnull %7)
  store i32 %31, ptr %34, align 4
  store i32 %33, ptr %gep, align 4
  %indvars.iv.next = add nsw i64 %indvars.iv, %20
  %46 = icmp slt i64 %indvars.iv.next, %22
  br i1 %46, label %30, label %.preheader, !llvm.loop !32

47:                                               ; preds = %.lr.ph47, %47
  %indvars.iv49 = phi i64 [ %27, %.lr.ph47 ], [ %indvars.iv.next50, %47 ]
  %48 = getelementptr inbounds i32, ptr %1, i64 %indvars.iv49
  %49 = load i32, ptr %48, align 4
  %50 = shl nsw i32 %49, 1
  store i32 %50, ptr %8, align 4
  %indvars.iv.next50 = add nsw i64 %indvars.iv49, %28
  %51 = getelementptr inbounds i32, ptr %1, i64 %indvars.iv.next50
  %52 = load i32, ptr %51, align 4
  %53 = shl nsw i32 %52, 1
  %54 = or disjoint i32 %53, 1
  store i32 %54, ptr %25, align 4
  %55 = call i32 @sat_solver_addclause(ptr noundef %0, ptr noundef nonnull %8, ptr noundef nonnull %26) #16
  %56 = icmp slt i64 %indvars.iv.next50, %29
  br i1 %56, label %47, label %.loopexit, !llvm.loop !33

.loopexit:                                        ; preds = %47, %.preheader, %6
  ret void
}